(ijobs.job
job
p0
(dp1
S'exed'
p2
S'/gpfs1/active/jose/code/python/combo_jobs'
p3
sS'story'
p4
S"Submit this job with the 'sub' button. "
p5
sS'exe'
p6
S'generic_job_list.py'
p7
sS'name'
p8
S'genTasserSplice'
p9
sS'args'
p10
S'-e "-Wx=qos:casp-bench" -k 800 -n tas -c scratchdir/spliceVariants/tasser/x/xxxxx -a scratchdir/spliceVariants/tasser/fail_tas.list -f "/bin/cp /gpfs1/active/jose/code/f77/tasser/tasser.1.0/learning/cas  /gpfs1/active/jose/code/f77/spicker/spicker0.0/spicker  /gpfs1/u/jose/bin/pulchra /gpfs1/scratch/jose/spliceVariants/tasser/x/xxxxx/rmsinp /gpfs1/scratch/jose/spliceVariants/tasser/x/xxxxx/*.dat  ." -g "tar jxf /gpfs1/active/jose/code/f77/tasser/tasser.1.0/common.tbz2  && tar jxf /gpfs1/scratch/jose/spliceVariants/tasser/indds/indd.tbz2 && for i in \\`seq 1 5\\`; do  /bin/mv \\$i/in.dd . && cas && /bin/mv rep*.tra \\$i && tar jcf \\${i}.tbz2 \\$i/ && /bin/mv \\${i}.tbz2  /gpfs1/scratch/jose/spliceVariants/tasser/x/xxxxx ; done && find  . -name rep*.tra > junk &&  wc junk | tr -s \' \'|cut -d\' \' -f2 > tra.in && cat junk >> tra.in &&  spicker && for i in \\`ls -1 combc* closc*\\`; do pulchra \\$i; done"  -i "/bin/mv combc* closc* rst.dat str.txt tra.in /gpfs1/scratch/jose/spliceVariants/tasser/x/xxxxx"'
p11
sS'file'
p12
S'/gpfs1/active/jose/code/python/db/job/tmp1F_lHt'
p13
sS'time'
p14
S'Tue Jun  6 21:29:13 2006'
p15
sS'shared'
p16
S''
p17
sb.