(ijobs.job
job
p0
(dp1
S'exed'
p2
S'/gpfs1/active/jose/code/python/combo_jobs'
p3
sS'story'
p4
S'Shashi generated input for these proteins smaller than 100 residues. These sequences are putative proteins, as they are extracted from a genome and have not been verified, except for a few sequences. We then do five ab initio runs, spicker, dukka, and pulchra.'
p5
sS'exe'
p6
S'generic_job_list.py'
p7
sS'name'
p8
S'trpCage: do ab initio runs'
p9
sS'args'
p10
S'-e "-Wx=qos:casp-bench" -k 800 -n trp -c scratchdir/trpCage -a scratchdir/trpCage/list -f "/bin/cp /gpfs1/active/jose/code/f77/tasser/tasser.1.0/mkinput/fakeDat/template.dat /gpfs1/active/jose/code/f77/tasser/tasser.1.0/mkinput/fakeDat/contact.dat /gpfs1/scratch/jose/trpCage/xxxxx ." -g "/bin/cp -rf /gpfs1/active/jose/code/f77/tasser/tasser.1.0/abinitio/indds . && mkseq.py -a xxxxx && mkpair.py -a xxxxx -e seq.dat && mkdat.py -a xxxxx -b xxxxx -c seq.dat -d template.dat -f contact.dat && mkrmsinp.py -i xxxxx -o . -f xxxxx && tar jcf tassinpt.tbz rmsinp *.dat && /bin/mv tassinpt.tbz /gpfs1/scratch/jose/trpCage && /bin/cp /gpfs1/active/jose/code/f77/tasser/tasser.1.0/mkinput/fakeDat/*dat . && tar jxf /gpfs1/active/jose/code/f77/tasser/tasser.1.0/common.tbz2  && for i in 1 2 3 4  5; do /bin/mv indds/\\$i/in.dd . && cas_abinitio && /bin/mv rep*.tra indds/\\$i; done && echo 80 > tra.in && find . -name \\"rep*tra\\" >> tra.in && spicker && for i in \\`ls -1 combo*\\`; do dukka.x \\$i && /bin/mv best.pdb \\${i}.refined && pulchra \\${i}.refined; done &&  /bin/mv indds reps && tar jcf reps.tbz2 reps" -i "/bin/mv reps.tbz2 *.dat combo* combc* closc* rmsinp /gpfs1/scratch/jose/trpCage"'
p11
sS'file'
p12
S'/gpfs1/active/jose/code/python/db/job/tmp2nAlkc'
p13
sS'time'
p14
S'Fri Sep 15 14:27:45 2006'
p15
sS'shared'
p16
S''
p17
sb.