(ijobs.job
job
p0
(dp1
S'exed'
p2
S'/gpfs1/active/jose/code/python/combo_jobs'
p3
sS'story'
p4
S'run dukka refinement program, then pulchra on the combo and closc models produced for the spliced variants.'
p5
sS'exe'
p6
S'generic_job_list.py'
p7
sS'name'
p8
S'splice variants. Run dukka and pulchra on combo and closc for toy.list'
p9
sS'args'
p10
S'-k 10 -n duk -c scratchdir/spliceVariants/tasser/x/xxxxx -a /gpfs1/scratch/jose/spliceVariants/tasser/toy.list -f "/bin/cp  /gpfs1/scratch/jose/spliceVariants/tasser/x/xxxxx/comb* /gpfs1/scratch/jose/spliceVariants/tasser/x/xxxxx/closc* ." -g "for i in 1 2; do  dukka.x combo\\${i}.pdb && /bin/mv best.pdb combo\\${i}.pdb.refined && pulchra combo\\${i}.pdb.refined && dukka.x closc\\${i}.pdb &&  /bin/mv best.pdb closc\\${i}.refined && pulchra closc\\${i}.pdb.refined; done"  -i "/bin/mv combo*refined* closc*refined* /gpfs1/scratch/jose/spliceVariants/tasser/x/xxxxx"'
p11
sS'file'
p12
S'/gpfs1/active/jose/code/python/db/job/tmp_jlGkY'
p13
sS'time'
p14
S'Tue Sep  5 14:20:10 2006'
p15
sS'shared'
p16
S''
p17
sb.