(ijobs.job
job
p0
(dp1
S'exed'
p2
S'/gpfs1/active/jose/code/python/combo_jobs'
p3
sS'story'
p4
S'Shashi generated input for these proteins smaller than 100 residues. These sequences are putative proteins, as they are extracted from a genome and have not been verified, except for a few sequences. We then do five ab initio runs, spicker, dukka, and pulchra.'
p5
sS'exe'
p6
S'generic_job_list.py'
p7
sS'name'
p8
S'spliceVariants: prospector and tasser on some sequences'
p9
sS'args'
p10
S'-e "-Wx=qos:casp-bench" -k 800 -l 335 -n pt -m "/tmp/jose/templatedir:scratchdir/spliceVariants/prospector/templatedir.tbz2" -c scratchdir/spliceVariants/benchmark/out/x/xxxxx -a scratchdir/spliceVariants/benchmark/preparing_database/pdb.40.300.alns_l1_200_l2_200_next_0_nint_1_lbig_5_seqid_0.6_cov_0.2.list -f "/bin/cp /gpfs1/active/jose/code/python/prospector/prospector_genomesmay06/modified/prospector.py /gpfs1/archive/adrian/dat/pseudo_splicing/input/xxxxx ." -g "./prospector.py -b /gpfs1/archive/adrian/dat/pseudo_splicing -a xxxxx &&  tar jcf xxxxx.prospector.out.tbz2 pdbb* && /bin/mv xxxxx.prospector.out.tbz2 /gpfs1/scratch/jose/spliceVariants/benchmark/out/x/xxxxx && /bin/cp /gpfs1/active/jose/code/f77/tasser/tasser.1.0/original/cas /gpfs1/active/jose/code/f77/tasser/tasser.1.0/original/in.dd . && mkseq.py -a xxxxx && mkpair.py -a xxxxx -e seq.dat && mkdat.py -a xxxxx -b xxxxx -c seq.dat -e pdbbpdborienrev/xxxxxrap3orienrev5s.pdb -g pdbbzpot4a/xxxxx.predictedrap3orienrev && mkrmsinp.py -i xxxxx -o . -f xxxxx && tar jcf tassinpt.tbz rmsinp *.dat && /bin/mv tassinpt.tbz2 /gpfs1/scratch/jose/spliceVariants/benchmark/out/x/xxxxx && tar jxf /gpfs1/active/jose/code/f77/tasser/tasser.1.0/common.tbz2  && ./cas && echo 16 > tra.in && find . -name \\"rep*tra\\" >> tra.in && spicker && for i in \\`ls -1 combo*\\`; do dukka.x \\$i && /bin/mv best.pdb \\${i}.refined && pulchra \\${i}.refined; done && tar jcf reps.tbz2 rep*tra && tar jcf xxxxx.spicker.out.tbz2 str.txt rst.dat comb* closc* " -i "/bin/mv reps.tbz2 xxxxx.spicker.out.tbz2 combo* closc* rst.dat /gpfs1/scratch/jose/spliceVariants/benchmark/out/x/xxxxx"'
p11
sS'file'
p12
S'/gpfs1/active/jose/code/python/db/job/tmpbn4AD5'
p13
sS'time'
p14
S'Wed Sep 27 10:48:03 2006'
p15
sS'shared'
p16
S''
p17
sb.