(ijobs.job
job
p0
(dp1
S'exed'
p2
S'/gpfs1/active/jose/code/python/combo_jobs'
p3
sS'story'
p4
S"Submit this job with the 'sub' button. "
p5
sS'exe'
p6
S'generic_job_list.py'
p7
sS'name'
p8
S'spikerTM on metaserver casp targets'
p9
sS'args'
p10
S'-e "-Wx=qos:casp-bench" -k 100 -n meta -a /gpfs1/active/casp7/output/jose/assess/spickerTMonMetaserver/targets.list -c /gpfs1/active/casp7/output/jose/assess/spickerTMonMetaserver/xxxxx -f "/bin/cp /gpfs1/active/casp7/output/jose/assess/spickerTMonMetaserver/xxxxx/xxxxx.bz /gpfs1/active/casp7/input/Metaserver/xxxxx/seq.dat /gpfs1/active/jose/code/cpp/spicker/spickerTMmodified.x  /gpfs1/u/jose/bin/pulchra  ." -g "tar jxf xxxxx.bz && find ./ -name \\"rep*\\" > junk &&  wc junk | tr -s \' \'|cut -d\' \' -f 2 > tra.in && cat junk >> tra.in && spickerTMmodified.x -m xxxxx -n 2000 && for i in \\`ls -1 combc* closc*\\`; do pulchra \\$i; done" -i "/bin/mv combc* closc* rst.dat tra.in /gpfs1/active/casp7/output/jose/assess/spickerTMonMetaserver/xxxxx"'
p11
sS'file'
p12
S'/gpfs1/active/jose/code/python/db/job/tmpd2qNfB'
p13
sS'time'
p14
S'Fri Jul 21 18:19:44 2006'
p15
sS'shared'
p16
S''
p17
sb.