(ijobs.job
job
p0
(dp1
S'exed'
p2
S'/gpfs1/active/jose/code/python/combo_jobs'
p3
sS'story'
p4
S"Submit this job with the 'sub' button. "
p5
sS'exe'
p6
S'generic_job_list.py'
p7
sS'name'
p8
S'abInitioWeightOptimization: Generate filtered trajectories and chain.dat'
p9
sS'args'
p10
S'-n eg -d 0.99 -k 200 -c scratchdir/abInitioWeightOptimization/100to199/x/xxxxx -a scratchdir/abInitioWeightOptimization/100to199/success_hardNoGeomViol.list -f "/bin/cp /gpfs1/active/jose/code/projects/abInitioWeightOptimization/genE.py ." -g "genE.py -a xxxxx "'
p11
sS'file'
p12
S'/gpfs1/active/jose/code/python/db/job/tmpFplQzL'
p13
sS'time'
p14
S'Wed Dec  6 09:48:05 2006'
p15
sS'shared'
p16
S''
p17
sb.