(ijobs.job
job
p0
(dp1
S'exed'
p2
S'/gpfs1/active/jose/code/python/combo_jobs'
p3
sS'story'
p4
S"Submit this job with the 'sub' button. "
p5
sS'exe'
p6
S'generic_job_list.py'
p7
sS'name'
p8
S'foldsOrigin'
p9
sS'args'
p10
S'-c /gpfs1/scratch/jose/foldsOrigin/out/c/xxxxx -n orig1 -a /gpfs1/scratch/jose/foldsOrigin/input/c/half.list -f "/bin/cp /gpfs1/scratch/jose/foldsOrigin/input/cas_gene /gpfs1/scratch/jose/foldsOrigin/input/c/xxxxx/seq.dat /gpfs1/scratch/jose/foldsOrigin/input/c/xxxxx/rmsinp /gpfs1/scratch/jose/foldsOrigin/input/common.tbz2 /gpfs1/scratch/jose/foldsOrigin/input/chain.dat  /gpfs1/scratch/jose/foldsOrigin/input/indds/1/in.dd ."  -g  "tar jxf common.tbz2 && ./cas_gene && a=\\`pwd\\` && a=\\`basename \\$a\\`  && cd .. && tar jcf 1c.tbz2 \\${a}/rep*.tra"  -i  "/bin/mv ../1c.tbz2 /gpfs1/scratch/jose/foldsOrigin/out/c/xxxxx"'
p11
sS'file'
p12
S'/gpfs1/active/jose/code/python/db/job/tmpfkRyDq'
p13
sS'time'
p14
S'Tue May 16 15:34:31 2006'
p15
sS'shared'
p16
S''
p17
sb.