(ijobs.job
job
p0
(dp1
S'exed'
p2
S'/gpfs1/active/jose/code/python/combo_jobs'
p3
sS'story'
p4
S'Shashi generated input for these proteins smaller than 100 residues. These sequences are putative proteins, as they are extracted from a genome and have not been verified, except for a few sequences. We then do five ab initio runs, spicker, dukka, and pulchra.'
p5
sS'exe'
p6
S'generic_job_list.py'
p7
sS'name'
p8
S'find best PDB hit for new short proteins'
p9
sS'args'
p10
S'-m "/tmp/jose/CA:/gpfs1/scratch/jose/newShortProteins/CA.tbz2" -k 10 -n hit -c scratchdir/newShortProteins/tasser/x/xxxxx -a scratchdir/newShortProteins/0002.nonredlist -f "/bin/cp /gpfs1/scratch/jose/newShortProteins/pdb_may06.apr06.list  /gpfs1/scratch/jose/newShortProteins/tasser/x/xxxxx/comb* /gpfs1/scratch/jose/newShortProteins/tasser/x/xxxxx/closc* /gpfs1/scratch/jose/newShortProteins/tasser/x/xxxxx/rst.dat /gpfs1/active/jose/code/python/spicker/findBestPDBHitForYangSpickerResults.py ." -g " ./findBestPDBHitForYangSpickerResults.py -d /tmp/jose/CA/yyyyy.pdb -e pdb_may06.apr06.list -g bestHit.dat -i xxxxx"  -i "/bin/mv bestHit.dat /gpfs1/scratch/jose/newShortProteins/tasser/x/xxxxx"'
p11
sS'file'
p12
S'/gpfs1/active/jose/code/python/db/job/tmpiQHUdi'
p13
sS'time'
p14
S'Tue Aug 22 08:05:25 2006'
p15
sS'shared'
p16
S''
p17
sb.