(ijobs.job
job
p0
(dp1
S'exed'
p2
S'/gpfs1/active/jose/code/python/combo_jobs'
p3
sS'story'
p4
S'run jnet.py on the culled_set2_lt600 set of sequences provided by Hongyi'
p5
sS'exe'
p6
S'generic_job_list.py'
p7
sS'name'
p8
S'ssEval: jnet on culled_set2_lt600'
p9
sS'args'
p10
S'-e "-Wx=qos:blast" -d 0.99 -k 1300 -l 100 -n jnet -c scratchdir/ssEval/culled_set2_lt600/out/xxxxx -a scratchdir/ssEval/culled_set2_lt600/input/list -f "/bin/cp /gpfs1/scratch/jose/ssEval/culled_set2_lt600/input/xxxxx ." -g "/library/jose/code/python/secondary/jnet/jnet.py -a xxxxx" -i "/bin/mv seq.dat /gpfs1/scratch/jose/ssEval/culled_set2_lt600/out/xxxxx"'
p11
sS'file'
p12
S'/gpfs1/active/jose/code/python/db/job/tmpjNjuqE'
p13
sS'time'
p14
S'Fri Nov 17 17:23:32 2006'
p15
sS'shared'
p16
S''
p17
sb.