(ijobs.job
job
p0
(dp1
S'exed'
p2
S'/gpfs1/active/jose/code/python/combo_jobs'
p3
sS'story'
p4
S'pair1.dat and pair3.dat for ab initio weight optimization'
p5
sS'exe'
p6
S'generic_job_list.py'
p7
sS'name'
p8
S'abInitioWeightOptimization generate pair files'
p9
sS'args'
p10
S'-k 800 -n pairAWO -c scratchdir/abInitioWeightOptimization/100to199/x/xxxxx -a scratchdir/abInitioWeightOptimization/100to199/fail_pair_hardNoGeomViol.list -f "/bin/cp /gpfs1/archive/adrian/dat/pdb_may06.apr06.aux/input/xxxxx  /gpfs1/archive/adrian/dat/pdb_may06.apr06/seq/xxxxx.SEQ  /gpfs1/active/jose/code/python/tasser/tasser1.0/mkinput/mkpair.py ." -g "/bin/mv xxxxx.SEQ seq.dat && mkpair.py -a xxxxx -e seq.dat" -i "/bin/mv pair* seq.dat /gpfs1/scratch/jose/abInitioWeightOptimization/100to199/x/xxxxx" '
p11
sS'file'
p12
S'/gpfs1/active/jose/code/python/db/job/tmpLuWQ2Q'
p13
sS'time'
p14
S'Mon Jun 12 17:01:41 2006'
p15
sS'shared'
p16
S''
p17
sb.