(ijobs.job
job
p0
(dp1
S'exed'
p2
S'/gpfs1/active/jose/code/python/combo_jobs'
p3
sS'scriptf'
p4
S'/gpfs1/scratch/jose/qsub/2007-05-15/qsub.sh_gui182917'
p5
sS'exe'
p6
S'generic_job_list.py'
p7
sS'name'
p8
S'abInitioWeightOptimization: Generate Decoys Hard Targets'
p9
sS'args'
p10
S'-e "-Wx=qos:personal" -d 0.99 -k 400 -n dec2 -c scratchdir/abInitioWeightOptimization/100to199/x/xxxxx -a scratchdir/abInitioWeightOptimization/100to199/success_hardNoGeomViol.list -f "/bin/cp /gpfs1/active/jose/code/projects/abInitioWeightOptimization/cas  /gpfs1/scratch/jose/abInitioWeightOptimization/100to199/x/xxxxx/rmsinp /gpfs1/scratch/jose/abInitioWeightOptimization/100to199/x/xxxxx/*.dat /gpfs1/archive/adrian/dat/pdb_mar07/CA/xxxxx.pdb /gpfs1/active/jose/code/projects/abInitioWeightOptimization/shortArun/in.dd ." -g "/bin/cp /gpfs1/scratch/jose/abInitioWeightOptimization/fakeDat/*dat . && tar jxf /gpfs1/active/jose/code/f77/tasser/tasser.1.0/common.tbz2  && mv xxxxx.pdb CA && ./cas && mv rep1.tra rep1HighTM.tra  && bzip2 rep1HighTM.tra" -i "/bin/mv rep1HighTM.tra.bz2 /gpfs1/scratch/jose/abInitioWeightOptimization/100to199/x/xxxxx/"'
p11
sS'story'
p12
S"Submit this job with the 'sub' button. "
p13
sS'file'
p14
S'/gpfs1/active/jose/code/python/db/job/tmplokjRX'
p15
sS'time'
p16
S'Thu Aug  3 18:24:52 2006'
p17
sS'shared'
p18
S''
p19
sb.