(ijobs.job
job
p0
(dp1
S'exed'
p2
S'/gpfs1/active/jose/code/python/combo_jobs'
p3
sS'story'
p4
S"Submit this job with the 'sub' button. "
p5
sS'exe'
p6
S'generic_job_list.py'
p7
sS'name'
p8
S'genDatSplice'
p9
sS'args'
p10
S'-k 800 -l 3000 -n dat -m "/tmp/jose/PDBexpanded:scratchdir/updateMkLib/PDBexpanded.tbz2"  -c scratchdir/spliceVariants/tasser/x/xxxxx -a scratchdir/spliceVariants/tasser/fail_dat.list -f "/bin/cp /gpfs1/active/jose/code/python/tasser/tasser1.0/mkinput/mkdat.py /gpfs1/scratch/jose/spliceVariants/input/xxxxx /gpfs1/archive/adrian/dat/splice/seq/xxxxx.SEQ  /gpfs1/scratch/jose/spliceVariants/prospector/x/xxxxx/pdbbpdborienrev/xxxxxrap3orienrev5s.pdb /gpfs1/scratch/jose/spliceVariants/prospector/x/xxxxx/pdbbzpot4a/xxxxx.predictedrap3orienrev ." -g "./mkdat.py -a xxxxx -b xxxxx -c xxxxx.SEQ -e xxxxxrap3orienrev5s.pdb -g xxxxx.predictedrap3orienrev  -i /tmp/jose/PDBexpanded -k /gpfs1/scratch/jose/spliceVariants/tasser/x/xxxxx" '
p11
sS'file'
p12
S'/gpfs1/active/jose/code/python/db/job/tmpMcu470'
p13
sS'time'
p14
S'Tue Jun  6 20:57:19 2006'
p15
sS'shared'
p16
S''
p17
sb.