(ijobs.job
job
p0
(dp1
S'exed'
p2
S'/gpfs1/active/jose/code/python/combo_jobs'
p3
sS'story'
p4
S"Submit this job with the 'sub' button. "
p5
sS'exe'
p6
S'generic_job_list.py'
p7
sS'name'
p8
S'checkSpickerTM'
p9
sS'args'
p10
S'-e "-Wx=qos:casp-bench" -k 800 -n spk -c scratchdir/checkSpickerTM/spicker/x/xxxxx -a scratchdir/checkSpickerTM/spicker/fail.list -f "/bin/cp /gpfs1/scratch/jose/checkSpickerTM/input/x/xxxxx/xxxxx_1000_?.bz  /gpfs1/active/jose/code/f77/spicker/spicker0.0/spicker  /gpfs1/u/jose/bin/pulchra /gpfs1/scratch/jose/checkSpickerTM/input/x/xxxxx/seq.dat /gpfs1/scratch/jose/checkSpickerTM/input/x/xxxxx/rmsinp /gpfs1/scratch/jose/checkSpickerTM/input/x/xxxxx/CA ." -g "for i in 1 2 3 4 5; do tar jxf xxxxx_1000_\\${i}.bz; done  && find  . -name rep*.tra > junk &&  wc junk | tr -s \' \'|cut -d\' \' -f2 > tra.in && cat junk >> tra.in &&  time -p spicker && for i in \\`ls -1 combo* closc*\\`; do pulchra \\$i; done"  -i "/bin/mv combo* closc* rst.dat tra.in /gpfs1/scratch/jose/checkSpickerTM/spicker/x/xxxxx"'
p11
sS'file'
p12
S'/gpfs1/active/jose/code/python/db/job/tmpnC3vas'
p13
sS'time'
p14
S'Sat Jul 15 12:48:57 2006'
p15
sS'shared'
p16
S''
p17
sb.