(ijobs.job
job
p0
(dp1
S'exed'
p2
S'/gpfs1/active/jose/code/python/combo_jobs'
p3
sS'story'
p4
S"Submit this job with the 'sub' button. "
p5
sS'exe'
p6
S'generic_job_list.py'
p7
sS'name'
p8
S'casp7AbInitioSpicker'
p9
sS'args'
p10
S'-e "-Wx=qos:casp-bench"  -n spick -c scratchdir/casp7/output/testHardCases/test0/xxxxx -a scratchdir/casp7/output/testHardCases/test0/fail.list -f "/bin/cp /gpfs1/active/jose/code/f77/spicker/spicker0.0/spicker /gpfs1/scratch/jose/casp7/output/testHardCases/test0/xxxxx/*tra* /gpfs1/scratch/jose/casp7/output/testHardCases/test0/xxxxx/seq.dat /gpfs1/scratch/jose/casp7/output/testHardCases/test0/xxxxx/rmsinp ." -g "bunzip2 *.bz2 &&  ls -1 rep*tra | wc -l > tra.in && ls -1 rep*.tra >> tra.in && ./spicker" -i "/bin/mv *pdb rst.dat /gpfs1/scratch/jose/casp7/output/testHardCases/test0/xxxxx"'
p11
sS'file'
p12
S'/gpfs1/active/jose/code/python/db/job/tmpPmDB3n'
p13
sS'time'
p14
S'Tue May 16 16:43:49 2006'
p15
sS'shared'
p16
S''
p17
sb.