(ijobs.job
job
p0
(dp1
S'exed'
p2
S'/gpfs1/active/jose/code/python/combo_jobs'
p3
sS'story'
p4
S'Shashi generated input for these proteins smaller than 100 residues. These sequences are putative proteins, as they are extracted from a genome and have not been verified, except for a few sequences. We then do five ab initio runs, spicker, dukka, and pulchra.'
p5
sS'exe'
p6
S'generic_job_list.py'
p7
sS'name'
p8
S'new phort proteins 5 runs ab initio TASSER '
p9
sS'args'
p10
S'-k 400 -n N -c scratchdir/newShortProteins/tasser/x/xxxxx -a scratchdir/newShortProteins/tasser/fail.list -f "/bin/cp /gpfs1/active/jose/code/f77/tasser/tasser.1.0/abinitio/cas_abinitio /gpfs1/scratch/jose/newShortProteins/input/xxxxx/xxxxx.datout.bz /gpfs1/scratch/jose/newShortProteins/input/xxxxx/xxxxx.pairout.bz ." -g "tar jxf xxxxx.datout.bz && /bin/cp -rf /gpfs1/scratch/jose/newShortProteins/indds . && tar jxf xxxxx.pairout.bz && /bin/cp /gpfs1/scratch/jose/newShortProteins/fakeDat/*dat . && tar jxf /gpfs1/active/jose/code/f77/tasser/tasser.1.0/common.tbz2  && for i in 1 2 3 4  5; do /bin/mv indds/\\$i/in.dd . && cas_abinitio && /bin/mv rep*.tra indds/\\$i; done && echo 80 > tra.in && find . -name \\"rep*tra\\" >> tra.in && spicker && for i in \\`ls -1 combo*\\`; do dukka.x \\$i && /bin/mv best.pdb \\${i}.refined && pulchra \\${i}.refined; done &&  /bin/mv indds reps && tar jcf reps.tbz2 reps" -i "/bin/mv reps.tbz2 *.dat combo* combc* closc* rmsinp /gpfs1/scratch/jose/newShortProteins/tasser/x/xxxxx"'
p11
sS'file'
p12
S'/gpfs1/active/jose/code/python/db/job/tmpS6uZ4Q'
p13
sS'time'
p14
S'Tue Aug  8 11:30:29 2006'
p15
sS'shared'
p16
S''
p17
sb.