(ijobs.job
job
p0
(dp1
S'exed'
p2
S'/gpfs1/active/jose/code/python/combo_jobs'
p3
sS'story'
p4
S"Submit this job with the 'sub' button. "
p5
sS'exe'
p6
S'generic_job_list.py'
p7
sS'name'
p8
S'spliceVariants: prospector'
p9
sS'args'
p10
S'-k 600 -l 335 -n pro -m "/tmp/jose/templatedir:scratchdir/spliceVariants/prospector/templatedir.tbz2"  -c scratchdir/spliceVariants/prospector/x/xxxxx -a scratchdir/spliceVariants/prospector/fail_pro.list -f "/bin/cp  /gpfs1/active/jose/code/python/prospector/prospector_genomesmay06/modified/prospector.py ." -g "./prospector.py -a xxxxx -e /gpfs1/scratch/jose/spliceVariants/prospector/x/xxxxx"'
p11
sS'file'
p12
S'/gpfs1/active/jose/code/python/db/job/tmpT3HEJK'
p13
sS'time'
p14
S'Fri Jun  2 23:49:12 2006'
p15
sS'shared'
p16
S''
p17
sb.