(ijobs.job
job
p0
(dp1
S'exed'
p2
S'/gpfs1/active/jose/code/python/combo_jobs'
p3
sS'story'
p4
S"Submit this job with the 'sub' button. "
p5
sS'exe'
p6
S'generic_job_list.py'
p7
sS'name'
p8
S'checkSpickerTM TMrunModified 2000'
p9
sS'args'
p10
S'-e "-Wx=qos:casp-bench" -k 100 -n spk2000 -c scratchdir/checkSpickerTM/spickerTMmodified2000/x/xxxxx -a scratchdir/checkSpickerTM/spickerTMmodified2000/fail.list -f "/bin/cp /gpfs1/scratch/jose/checkSpickerTM/input/x/xxxxx/xxxxx_1000_?.bz  /gpfs1/active/jose/code/cpp/spicker/spickerTMmodified.x  /gpfs1/u/jose/bin/pulchra  /gpfs1/scratch/jose/checkSpickerTM/input/x/xxxxx/seq.dat /gpfs1/scratch/jose/checkSpickerTM/input/x/xxxxx/CA  ." -g "for i in 1 2 3 4 5; do tar jxf xxxxx_1000_\\${i}.bz; done  && find  . -name rep*.tra > junk &&  wc junk | tr -s \' \'|cut -d\' \' -f2 > tra.in && cat junk >> tra.in &&  time -p spickerTMmodified.x -a CA -m xxxxx -n 2000 && for i in \\`ls -1 combc* closc*\\`; do pulchra \\$i; done"  -i "/bin/mv combc* closc* rst.dat tra.in /gpfs1/scratch/jose/checkSpickerTM/spickerTMmodified2000/x/xxxxx"'
p11
sS'file'
p12
S'/gpfs1/active/jose/code/python/db/job/tmpv0MlxO'
p13
sS'time'
p14
S'Sat Jul 15 23:54:48 2006'
p15
sS'shared'
p16
S''
p17
sb.