(ijobs.job
job
p0
(dp1
S'exed'
p2
S'/gpfs1/active/jose/code/python/combo_jobs'
p3
sS'scriptf'
p4
S'/gpfs1/scratch/jose/qsub/2007-02-16/qsub.sh_gui190927'
p5
sS'exe'
p6
S'generic_job_list.py'
p7
sS'name'
p8
S'test multiple job'
p9
sS'args'
p10
S'-p 100 -e "-Wx=qos:blast" -n test -d 0.2 -k 1500 -c scratchdir/Hellinga/distrByLengthDecreasedLoopLoopInteraction/sequence_checking/test/xxxxx -a scratchdir/Hellinga/distrByLengthDecreasedLoopLoopInteraction/sequence_checking/test/toy.list -g "/library/jose/code/python/secondary/mkseq.py -a /gpfs1/scratch/jose/Hellinga/distrByLengthDecreasedLoopLoopInteraction/sequence_checking/test/xxxxx/xxxxx -o /gpfs1/scratch/jose/Hellinga/distrByLengthDecreasedLoopLoopInteraction/sequence_checking/test/xxxxx"'
p11
sS'story'
p12
S"Submit this job with the 'sub' button. "
p13
sS'file'
p14
S'/gpfs1/active/jose/code/python/db/job/tmpv91C2K'
p15
sS'time'
p16
S'Fri Feb 16 16:41:40 2007'
p17
sS'shared'
p18
S''
p19
sb.