(ijobs.job
job
p0
(dp1
S'exed'
p2
S'/gpfs1/active/jose/code/python/combo_jobs'
p3
sS'story'
p4
S'run jnet.py on the test_sp set of sequences provided by Hongyi'
p5
sS'exe'
p6
S'generic_job_list.py'
p7
sS'name'
p8
S'for hzhou3 test_sp'
p9
sS'args'
p10
S'-e "-Wx=qos:blast" -d 0.99 -k 1300 -l 100 -n jnet -c scratchdir/for/hzhou3/test_sp/out/xxxxx -a scratchdir/for/hzhou3/test_sp/out/fail.list -f "/bin/cp /gpfs1/scratch/jose/for/hzhou3/test_sp/input/xxxxx ." -g "/library/jose/code/python/secondary/jnet/jnet.py -a xxxxx" -i "/bin/mv seq.dat /gpfs1/scratch/jose/for/hzhou3/test_sp/out/xxxxx"'
p11
sS'file'
p12
S'/gpfs1/active/jose/code/python/db/job/tmpXkphyi'
p13
sS'time'
p14
S'Wed Jan 17 14:38:18 2007'
p15
sS'shared'
p16
S''
p17
sb.