(ijobs.job
job
p0
(dp1
S'exed'
p2
S'/gpfs1/active/jose/code/python/combo_jobs'
p3
sS'story'
p4
S'We only need exp.dat and par.dat, and store them under scratchdir/abInitioWeightOptimization/100to199'
p5
sS'exe'
p6
S'generic_job_list.py'
p7
sS'name'
p8
S'genDatAbInitioWeightOptimization'
p9
sS'args'
p10
S'-k 800 -l 3000 -n datAWO -m "/tmp/jose/PDBexpanded:scratchdir/updateMkLib/pdbexp.tbz2"  -c scratchdir/abInitioWeightOptimization/100to199/x/xxxxx -a scratchdir/abInitioWeightOptimization/100to199/fail_dat.list -f "/bin/cp /gpfs1/active/jose/code/python/tasser/tasser1.0/mkinput/mkdat.py /gpfs1/archive/adrian/dat/pdb_may06.apr06.aux/input/xxxxx /gpfs1/archive/adrian/dat/pdb_may06.apr06/seq/xxxxx.SEQ  /gpfs1/scratch/jose/abInitioWeightOptimization/fakeDat/template.dat  /gpfs1/scratch/jose/abInitioWeightOptimization/fakeDat/contact.dat ." -g "./mkdat.py -a xxxxx -b xxxxx -c xxxxx.SEQ -d template.dat -f contact.dat -i /tmp/jose/PDBexpanded -k /gpfs1/scratch/jose/abInitioWeightOptimization/100to199/x/xxxxx" '
p11
sS'file'
p12
S'/gpfs1/active/jose/code/python/db/job/tmpxhBOxJ'
p13
sS'time'
p14
S'Mon Jun 12 15:46:43 2006'
p15
sS'shared'
p16
S''
p17
sb.