(ijobs.job
job
p0
(dp1
S'exed'
p2
S'/gpfs1/active/jose/code/python/combo_jobs'
p3
sS'story'
p4
S'We only need exp.dat and par.dat, and store them under scratchdir/abInitioWeightOptimization/100to199'
p5
sS'exe'
p6
S'generic_job_list.py'
p7
sS'name'
p8
S'ab initio tasser input for CASP7 domains'
p9
sS'args'
p10
S'-e "-Wx=qos:casp-bench" -k 800 -l 3000 -n abDom -m "/tmp/jose/PDBexpanded:scratchdir/updateMkLib/PDBexpanded.tbz2"  -a /gpfs1/active/casp7/output/jose/assess/toy.list -c /gpfs1/active/casp7/output/jose/assess/tasserOnDomains/xxxxx  -f "/bin/cp /gpfs1/active/jose/code/python/tasser/tasser1.0/mkinput/mkseq.py /gpfs1/active/jose/code/python/tasser/tasser1.0/mkinput/mkpair.py /gpfs1/active/jose/code/python/tasser/tasser1.0/mkinput/mkdat.py  /gpfs1/active/jose/code/python/tasser/tasser1.0/mkrmsinp.py /gpfs1/active/casp7/output/jose/assess/tasserOnDomains/xxxxx/xxxxx /gpfs1/active/casp7/output/jose/assess/tasserOnDomains/fakeDat/template.dat  /gpfs1/active/casp7/output/jose/assess/tasserOnDomains/fakeDat/contact.dat ." -g "./mkrmsinp.py -i xxxxx -o . -f xxxxx && ./mkseq.py -a xxxxx && ./mkpair.py -a xxxxx -e seq.dat -f 1.00 -g /tmp/jose/PDBexpanded  &&  /mkdat.py -a xxxxx -b xxxxx -c seq.dat -d template.dat -f contact.dat -i /tmp/jose/PDBexpanded" -i "/bin/mv rmsinp *.dat  /gpfs1/active/casp7/output/jose/assess/tasserOnDomains/xxxxx"'
p11
sS'file'
p12
S'/gpfs1/active/jose/code/python/db/job/tmpYWcxJw'
p13
sS'time'
p14
S'Thu Jul 20 10:57:59 2006'
p15
sS'shared'
p16
S''
p17
sb.