(ijobs.job
job
p0
(dp1
S'exed'
p2
S'/gpfs1/active/jose/code/python/combo_jobs'
p3
sS'story'
p4
S'Shashi generated input for these proteins smaller than 100 residues. These sequences are putative proteins, as they are extracted from a genome and have not been verified, except for a few sequences. We then do five ab initio runs, spicker, dukka, and pulchra.'
p5
sS'exe'
p6
S'generic_job_list.py'
p7
sS'name'
p8
S'find best PDB hit for splice variants'
p9
sS'args'
p10
S'-k 10 -n hit2 -c scratchdir/spliceVariants/tasser/x/xxxxx -a /gpfs1/scratch/jose/spliceVariants/preparing_database/refsVars300.list -f "/bin/cp  /gpfs1/scratch/jose/spliceVariants/tasser/x/xxxxx/comb* /gpfs1/scratch/jose/spliceVariants/tasser/x/xxxxx/closc* /gpfs1/scratch/jose/spliceVariants/tasser/x/xxxxx/rst.dat /gpfs1/active/jose/code/python/spicker/findBestPDBHitForYangSpickerResults.py ." -g " ./findBestPDBHitForYangSpickerResults.py -d /library/yzhang/PDB/yyyyy.pdb -e /library/yzhang/PDB/list -g bestHit.dat -i xxxxx"  -i "/bin/mv bestHit.dat /gpfs1/scratch/jose/spliceVariants/tasser/x/xxxxx"'
p11
sS'file'
p12
S'/gpfs1/active/jose/code/python/db/job/tmpymrRDs'
p13
sS'time'
p14
S'Wed Aug 23 15:12:13 2006'
p15
sS'shared'
p16
S''
p17
sb.