(ijobs.job
job
p0
(dp1
S'exed'
p2
S'/gpfs1/active/jose/code/python/combo_jobs'
p3
sS'story'
p4
S"Submit this job with the 'sub' button. "
p5
sS'exe'
p6
S'generic_job_list.py'
p7
sS'name'
p8
S'genPairSplice'
p9
sS'args'
p10
S'-k 800 -l 3000 -n pair -m "/tmp/jose/PDBexpanded:scratchdir/updateMkLib/pdbexp.tbz2"  -c scratchdir/spliceVariants/tasser/x/xxxxx -a scratchdir/spliceVariants/tasser/fail_pair.list -f "/bin/cp /gpfs1/scratch/jose/spliceVariants/input/xxxxx  /gpfs1/scratch/jose/spliceVariants/tasser/x/xxxxx/seq.dat  /gpfs1/active/jose/code/python/tasser/tasser1.0/mkinput/mkpair.py ." -g "mkpair.py -f 0.95 -a xxxxx -g /tmp/jose/PDBexpanded -e seq.dat" -i "/bin/mv pair* /gpfs1/scratch/jose/spliceVariants/tasser/x/xxxxx" '
p11
sS'file'
p12
S'/gpfs1/active/jose/code/python/db/job/tmpy7_EoK'
p13
sS'time'
p14
S'Tue May 30 21:50:46 2006'
p15
sS'shared'
p16
S''
p17
sb.