(ijobs.job
job
p0
(dp1
S'exed'
p2
S'/gpfs1/active/jose/code/python/combo_jobs'
p3
sS'story'
p4
S"Submit this job with the 'sub' button. "
p5
sS'exe'
p6
S'generic_job_list.py'
p7
sS'name'
p8
S'Hellinga: Refine structures'
p9
sS'args'
p10
S'-e "-Wx=qos:critical" -n ref -d 0.99 -k 200 -c scratchdir/Hellinga/thioredoxin/out/xxxxx -a scratchdir/Hellinga/thioredoxin/out/b.list -f "/bin/cp  /gpfs1/scratch/jose/Hellinga/thioredoxin/out/xxxxx/rmsinp /gpfs1/scratch/jose/Hellinga/thioredoxin/out/xxxxx/seq.dat /gpfs1/active/jose/code/projects/Hellinga/brun/in.dd /gpfs1/scratch/jose/Hellinga/thioredoxin/out/xxxxx/chain.dat  /gpfs1/active/jose/code/projects/Hellinga/dukka_pulchra.py ." -g "tar jxf /gpfs1/scratch/jose/Hellinga/thioredoxin/out/xxxxx/xxxxx.B.out.spicker.tbz2  && ./dukka_pulchra.py -a xxxxx -b B -c yes" -i "/bin/mv xxxxx.B.closc*.pdb.rebuilt /gpfs1/scratch/jose/Hellinga/thioredoxin/structures"'
p11
sS'file'
p12
S'/gpfs1/active/jose/code/python/db/job/tmpZ5MRWe'
p13
sS'time'
p14
S'Sun Jan 21 07:58:52 2007'
p15
sS'shared'
p16
S''
p17
sb.