(ijobs.job
job
p0
(dp1
S'exed'
p2
S'/gpfs1/active/jose/code/python/combo_jobs'
p3
sS'story'
p4
S"Submit this job with the 'sub' button. "
p5
sS'exe'
p6
S'generic_job_list.py'
p7
sS'name'
p8
S'synthetic_lib: Find best PDB for synthetic_lib'
p9
sS'args'
p10
S'-e "-Wx=qos:critical" -n syn -d 0.02 -k 200 -m "/tmp/jose/synthetic_lib:/gpfs1/scratch/jose/synthetic_lib/synthetic_lib.tbz2" -c scratchdir/synthetic_lib/out/xxxxx -a scratchdir/synthetic_lib/synthetic_lib/pdball.lst -f "/bin/cp /gpfs1/active/jose/code/f77/TM-align/TMalign /gpfs1/scratch/jose/synthetic_lib/synthetic_lib/xxxxx.pdb ." -g "/library/jose/code/python/TMalign/findBestPDBhitByTMalign.py -a xxxxx.pdb -e /tmp/jose/synthetic_lib/pdball.lst -d /tmp/jose/synthetic_lib/yyyyy.pdb -i all > all.dat" -i "/bin/mv all.dat /gpfs1/scratch/jose/synthetic_lib/out/xxxxx/xxxxx.inpdb.dat"'
p11
sS'file'
p12
S'/gpfs1/active/jose/code/python/db/job/tmpz6AKpJ'
p13
sS'time'
p14
S'Mon Feb  5 16:22:56 2007'
p15
sS'shared'
p16
S''
p17
sb.