(ijobs.job
job
p0
(dp1
S'exed'
p2
S'/gpfs1/active/jose/code/python/combo_jobs'
p3
sS'story'
p4
S"Submit this job with the 'sub' button. "
p5
sS'exe'
p6
S'preditc_strutc_list.py'
p7
sS'name'
p8
S'multiple parallel jobs'
p9
sS'file'
p10
S'/gpfs1/active/jose/code/python/db/job/tmp6_deLg'
p11
sS'time'
p12
S'Fri Feb 24 17:30:32 2006'
p13
sS'args'
p14
S'-u qsub -q batch -c 6 -b 500 -x parall -l /gpfs1/active/jose/projects/nonhomol_pdbJul05/all_alpha/toylist  -t "codedir/python/tasser/tasser1.0/tasser_data_done.py -d codedir/f77/tasser/tasser.1.0/abinitio/in.dd -t codedir/f77/tasser/tasser.1.0/abinitio/cas_abinitio -f pdbnonhom/seq -b /gpfs1/active/jose/projects/createInputsTasser/x/xxxxx/abinitio  -e /gpfs1/active/jose/projects/createInputsTasser/x/xxxxx -o . -a CA -i xxxxx -c NOTAR"  -m "CA  in.dd out.d rep* tra*.in seq.dat" -o /gpfs1/active/jose/projects/createInputsTasser/x/xxxxx/abinitio'
p15
sb.