(ijobs.job
job
p0
(dp1
S'exed'
p2
S'/gpfs1/active/jose/code/python/combo_jobs'
p3
sS'story'
p4
S"Submit this job with the 'sub' button. "
p5
sS'exe'
p6
S'generic_job_list.py'
p7
sS'name'
p8
S'genTasserInput'
p9
sS'file'
p10
S'/gpfs1/active/jose/code/python/db/job/tmpAqhT1B'
p11
sS'time'
p12
S'Tue Apr 25 19:25:58 2006'
p13
sS'args'
p14
S'-x gen -b /gpfs1/active/jose/projects/updateMkLib/benchmark/output/current/xxxxx -a /gpfs1/active/jose/projects/updateMkLib/benchmark/hard.list -e "/bin/cp /gpfs1/active/jose/projects/updateMkLib/benchmark/input/xxxxx/* /gpfs1/active/jose/code/python/tasser/tasser1.0/mkinput/mkpair.py /gpfs1/active/jose/code/perl/tasser/tasser1.0/mkinput/mkdat.pl ." -f "./mkpair.py -b seq.txt -e seq.dat && ./mkdat.pl -v seq.txt -d . -o ."  -g "/bin/mv *.dat /gpfs1/active/jose/projects/updateMkLib/benchmark/output/current/xxxxx"'
p15
sb.