(ijobs.job
job
p0
(dp1
S'exed'
p2
S'/gpfs1/active/jose/code/python/combo_jobs'
p3
sS'story'
p4
S"Submit this job with the 'sub' button."
p5
sS'exe'
p6
S'preditc_strutc_list.py'
p7
sS'name'
p8
S'all_alpha abinitio_pgi32'
p9
sS'file'
p10
S'/gpfs1/active/jose/code/python/db/job/tmpwErgTr'
p11
sS'time'
p12
S'Thu Feb  9 09:02:23 2006'
p13
sS'args'
p14
S'-u qsub -q batch -b 500 -x pgi32 -l /gpfs1/active/jose/projects/nonhomol_pdbJul05/all_alpha/pdbJul05_alph.list -t "codedir/python/tasser/tasser1.0/tasser_data_done.py -d codedir/f77/tasser/tasser.1.0/original/in.dd   -t codedir/f77/tasser/tasser.1.0/abinitio/cas_abinitio_pgi32 -f pdbnonhom/seq -b /gpfs1/active/jose/projects/createInputsTasser/x/xxxxx/abinitio  -e /gpfs1/active/jose/projects/createInputsTasser/x/xxxxx -o . -a CA -i" -z "codedir/c/spicker/spickerZZ.x -l tra.in -s seq.dat -a CA -o . -b NOTAR -m" -m "CA *pdb  in.dd out.d rep* tra.in summary.txt" -o /gpfs1/active/jose/projects/abinitio_pgi32/x/xxxxx'
p15
sb.