(ijobs.job
job
p0
(dp1
S'exed'
p2
S'/gpfs1/active/jose/code/python/combo_jobs'
p3
sS'story'
p4
S"Submit this job with the 'sub' button.  We run tasser with nifo from prospector already made, and also with noe files. After this run spickerZZ filtering only those trajectories with rco > 0.80. The list is such that all noe.dat files have at least one restraint"
p5
sS'exe'
p6
S'preditc_strutc_list.py'
p7
sS'name'
p8
S'tasser on input from prospector plus NMR restraints toylist'
p9
sS'file'
p10
S'/gpfs1/active/jose/code/python/db/job/tmpxjOnuz'
p11
sS'time'
p12
S'Mon Feb  6 18:31:53 2006'
p13
sS'args'
p14
S'-u qsub -q batch -b 500 -x nmrRestr -l /gpfs1/active/jose/projects/NMR_constraints/tasser1.0_NMR_II/out/toylist -t "codedir/python/tasser/tasser1.0/tasser_data_done.py -d codedir/f77/tasser/tasser.1.0/tasser_nmr/in.dd   -t codedir/f77/tasser/tasser.1.0/tasser_nmr/cas_nmr -b /gpfs1/active/jose/projects/NMR_constraints/mkinput/run/input_output/x/xxxxx -o . -n /gpfs1/active/jose/projects/NMR_constraints/mkinput_NMR/run/input_output/x/xxxxx   -a CA -i" -z "codedir/c/spicker/spickerZZ.x -l tra.in -s seq.dat -r 0.80 -a CA -o . -b NOTAR -m" -m "CA *pdb *dat in.dd out.d rep* tra.in summary.txt" -o /gpfs1/active/jose/projects/NMR_constraints/tasser1.0_NMR_II/out'
p15
sb.